target datalayout = "e-m:e-p270:32:32-p271:32:32-p272:64:64-i64:64-i128:128-f80:128-n8:16:32:64-S128"
target triple = "x86_64-pc-linux-gnu"

%struct.ForEachState = type { ptr, i32 }
%struct.List = type { i32, i32, i32, ptr, [0 x %union.ListCell] }
%union.ListCell = type { ptr }
%struct.Plan = type { i32, i32, double, double, double, i32, i8, i8, i8, i32, ptr, ptr, ptr, ptr, ptr, ptr, ptr }
%struct.Node = type { i32 }
%struct.TargetEntry = type { %struct.Expr, ptr, i16, ptr, i32, i32, i16, i8 }
%struct.Expr = type { i32 }
%struct.Var = type { %struct.Expr, i32, i16, i32, i32, i32, ptr, i32, i32, i32, i16, i32 }
%struct.indexed_tlist = type { ptr, i32, i8, i8, [0 x %struct.tlist_vinfo] }
%struct.tlist_vinfo = type { i32, i16, i16, ptr }
%struct.fix_windowagg_cond_context = type { ptr, ptr, i32 }

; Function Attrs: inlinehint nounwind uwtable
define internal i32 @list_length(ptr noundef %0) #2 {
  %2 = alloca ptr, align 8
  store ptr %0, ptr %2, align 8
  %3 = load ptr, ptr %2, align 8
  %4 = icmp ne ptr %3, null
  br i1 %4, label %5, label %9

5:                                                ; preds = %1
  %6 = load ptr, ptr %2, align 8
  %7 = getelementptr inbounds nuw %struct.List, ptr %6, i32 0, i32 1
  %8 = load i32, ptr %7, align 4
  br label %10

9:                                                ; preds = %1
  br label %10

10:                                               ; preds = %9, %5
  %11 = phi i32 [ %8, %5 ], [ 0, %9 ]
  ret i32 %11
}

; Function Attrs: nounwind uwtable
define internal ptr @fix_windowagg_condition_expr(ptr noundef %0, ptr noundef %1, ptr noundef %2) #0 {
  %4 = alloca ptr, align 8
  %5 = alloca ptr, align 8
  %6 = alloca ptr, align 8
  %7 = alloca %struct.fix_windowagg_cond_context, align 8
  store ptr %0, ptr %4, align 8
  store ptr %1, ptr %5, align 8
  store ptr %2, ptr %6, align 8
  call void @llvm.lifetime.start.p0(i64 24, ptr %7) #8
  %8 = load ptr, ptr %4, align 8
  %9 = getelementptr inbounds nuw %struct.fix_windowagg_cond_context, ptr %7, i32 0, i32 0
  store ptr %8, ptr %9, align 8
  %10 = load ptr, ptr %6, align 8
  %11 = getelementptr inbounds nuw %struct.fix_windowagg_cond_context, ptr %7, i32 0, i32 1
  store ptr %10, ptr %11, align 8
  %12 = getelementptr inbounds nuw %struct.fix_windowagg_cond_context, ptr %7, i32 0, i32 2
  store i32 0, ptr %12, align 8
  %13 = load ptr, ptr %5, align 8
  %14 = call ptr @fix_windowagg_condition_expr_mutator(ptr noundef %13, ptr noundef %7)
  call void @llvm.lifetime.end.p0(i64 24, ptr %7) #8
  ret ptr %14
}

; Function Attrs: nounwind uwtable
define internal ptr @build_tlist_index(ptr noundef %0) #0 {
  %2 = alloca ptr, align 8
  %3 = alloca ptr, align 8
  %4 = alloca ptr, align 8
  %5 = alloca ptr, align 8
  %6 = alloca %struct.ForEachState, align 8
  %7 = alloca ptr, align 8
  %8 = alloca ptr, align 8
  store ptr %0, ptr %2, align 8
  call void @llvm.lifetime.start.p0(i64 8, ptr %3) #8
  call void @llvm.lifetime.start.p0(i64 8, ptr %4) #8
  call void @llvm.lifetime.start.p0(i64 8, ptr %5) #8
  %9 = load ptr, ptr %2, align 8
  %10 = call i32 @list_length(ptr noundef %9)
  %11 = sext i32 %10 to i64
  %12 = mul i64 %11, 16
  %13 = add i64 16, %12
  %14 = call ptr @palloc(i64 noundef %13)
  store ptr %14, ptr %3, align 8
  %15 = load ptr, ptr %2, align 8
  %16 = load ptr, ptr %3, align 8
  %17 = getelementptr inbounds nuw %struct.indexed_tlist, ptr %16, i32 0, i32 0
  store ptr %15, ptr %17, align 8
  %18 = load ptr, ptr %3, align 8
  %19 = getelementptr inbounds nuw %struct.indexed_tlist, ptr %18, i32 0, i32 2
  store i8 0, ptr %19, align 4
  %20 = load ptr, ptr %3, align 8
  %21 = getelementptr inbounds nuw %struct.indexed_tlist, ptr %20, i32 0, i32 3
  store i8 0, ptr %21, align 1
  %22 = load ptr, ptr %3, align 8
  %23 = getelementptr inbounds nuw %struct.indexed_tlist, ptr %22, i32 0, i32 4
  %24 = getelementptr inbounds [0 x %struct.tlist_vinfo], ptr %23, i64 0, i64 0
  store ptr %24, ptr %4, align 8
  call void @llvm.lifetime.start.p0(i64 16, ptr %6) #8
  %25 = getelementptr inbounds nuw %struct.ForEachState, ptr %6, i32 0, i32 0
  %26 = load ptr, ptr %2, align 8
  store ptr %26, ptr %25, align 8
  %27 = getelementptr inbounds nuw %struct.ForEachState, ptr %6, i32 0, i32 1
  store i32 0, ptr %27, align 8
  %28 = getelementptr i8, ptr %6, i64 12
  call void @llvm.memset.p0.i64(ptr align 4 %28, i8 0, i64 4, i1 false)
  br label %29

29:                                               ; preds = %115, %1
  %30 = getelementptr inbounds nuw %struct.ForEachState, ptr %6, i32 0, i32 0
  %31 = load ptr, ptr %30, align 8
  %32 = icmp ne ptr %31, null
  br i1 %32, label %33, label %50

33:                                               ; preds = %29
  %34 = getelementptr inbounds nuw %struct.ForEachState, ptr %6, i32 0, i32 1
  %35 = load i32, ptr %34, align 8
  %36 = getelementptr inbounds nuw %struct.ForEachState, ptr %6, i32 0, i32 0
  %37 = load ptr, ptr %36, align 8
  %38 = getelementptr inbounds nuw %struct.List, ptr %37, i32 0, i32 1
  %39 = load i32, ptr %38, align 4
  %40 = icmp slt i32 %35, %39
  br i1 %40, label %41, label %50

41:                                               ; preds = %33
  %42 = getelementptr inbounds nuw %struct.ForEachState, ptr %6, i32 0, i32 0
  %43 = load ptr, ptr %42, align 8
  %44 = getelementptr inbounds nuw %struct.List, ptr %43, i32 0, i32 3
  %45 = load ptr, ptr %44, align 8
  %46 = getelementptr inbounds nuw %struct.ForEachState, ptr %6, i32 0, i32 1
  %47 = load i32, ptr %46, align 8
  %48 = sext i32 %47 to i64
  %49 = getelementptr inbounds %union.ListCell, ptr %45, i64 %48
  store ptr %49, ptr %5, align 8
  br label %51

50:                                               ; preds = %33, %29
  store ptr null, ptr %5, align 8
  br label %51

51:                                               ; preds = %50, %41
  %52 = phi i32 [ 1, %41 ], [ 0, %50 ]
  %53 = icmp ne i32 %52, 0
  br i1 %53, label %55, label %54

54:                                               ; preds = %51
  call void @llvm.lifetime.end.p0(i64 16, ptr %6) #8
  br label %119

55:                                               ; preds = %51
  call void @llvm.lifetime.start.p0(i64 8, ptr %7) #8
  %56 = load ptr, ptr %5, align 8
  %57 = load ptr, ptr %56, align 8
  store ptr %57, ptr %7, align 8
  %58 = load ptr, ptr %7, align 8
  %59 = getelementptr inbounds nuw %struct.TargetEntry, ptr %58, i32 0, i32 1
  %60 = load ptr, ptr %59, align 8
  %61 = icmp ne ptr %60, null
  br i1 %61, label %62, label %95

62:                                               ; preds = %55
  %63 = load ptr, ptr %7, align 8
  %64 = getelementptr inbounds nuw %struct.TargetEntry, ptr %63, i32 0, i32 1
  %65 = load ptr, ptr %64, align 8
  %66 = getelementptr inbounds nuw %struct.Node, ptr %65, i32 0, i32 0
  %67 = load i32, ptr %66, align 4
  %68 = icmp eq i32 %67, 6
  br i1 %68, label %69, label %95

69:                                               ; preds = %62
  call void @llvm.lifetime.start.p0(i64 8, ptr %8) #8
  %70 = load ptr, ptr %7, align 8
  %71 = getelementptr inbounds nuw %struct.TargetEntry, ptr %70, i32 0, i32 1
  %72 = load ptr, ptr %71, align 8
  store ptr %72, ptr %8, align 8
  %73 = load ptr, ptr %8, align 8
  %74 = getelementptr inbounds nuw %struct.Var, ptr %73, i32 0, i32 1
  %75 = load i32, ptr %74, align 4
  %76 = load ptr, ptr %4, align 8
  %77 = getelementptr inbounds nuw %struct.tlist_vinfo, ptr %76, i32 0, i32 0
  store i32 %75, ptr %77, align 8
  %78 = load ptr, ptr %8, align 8
  %79 = getelementptr inbounds nuw %struct.Var, ptr %78, i32 0, i32 2
  %80 = load i16, ptr %79, align 8
  %81 = load ptr, ptr %4, align 8
  %82 = getelementptr inbounds nuw %struct.tlist_vinfo, ptr %81, i32 0, i32 1
  store i16 %80, ptr %82, align 4
  %83 = load ptr, ptr %7, align 8
  %84 = getelementptr inbounds nuw %struct.TargetEntry, ptr %83, i32 0, i32 2
  %85 = load i16, ptr %84, align 8
  %86 = load ptr, ptr %4, align 8
  %87 = getelementptr inbounds nuw %struct.tlist_vinfo, ptr %86, i32 0, i32 2
  store i16 %85, ptr %87, align 2
  %88 = load ptr, ptr %8, align 8
  %89 = getelementptr inbounds nuw %struct.Var, ptr %88, i32 0, i32 6
  %90 = load ptr, ptr %89, align 8
  %91 = load ptr, ptr %4, align 8
  %92 = getelementptr inbounds nuw %struct.tlist_vinfo, ptr %91, i32 0, i32 3
  store ptr %90, ptr %92, align 8
  %93 = load ptr, ptr %4, align 8
  %94 = getelementptr inbounds nuw %struct.tlist_vinfo, ptr %93, i32 1
  store ptr %94, ptr %4, align 8
  call void @llvm.lifetime.end.p0(i64 8, ptr %8) #8
  br label %114

95:                                               ; preds = %62, %55
  %96 = load ptr, ptr %7, align 8
  %97 = getelementptr inbounds nuw %struct.TargetEntry, ptr %96, i32 0, i32 1
  %98 = load ptr, ptr %97, align 8
  %99 = icmp ne ptr %98, null
  br i1 %99, label %100, label %110

100:                                              ; preds = %95
  %101 = load ptr, ptr %7, align 8
  %102 = getelementptr inbounds nuw %struct.TargetEntry, ptr %101, i32 0, i32 1
  %103 = load ptr, ptr %102, align 8
  %104 = getelementptr inbounds nuw %struct.Node, ptr %103, i32 0, i32 0
  %105 = load i32, ptr %104, align 4
  %106 = icmp eq i32 %105, 318
  br i1 %106, label %107, label %110

107:                                              ; preds = %100
  %108 = load ptr, ptr %3, align 8
  %109 = getelementptr inbounds nuw %struct.indexed_tlist, ptr %108, i32 0, i32 2
  store i8 1, ptr %109, align 4
  br label %113

110:                                              ; preds = %100, %95
  %111 = load ptr, ptr %3, align 8
  %112 = getelementptr inbounds nuw %struct.indexed_tlist, ptr %111, i32 0, i32 3
  store i8 1, ptr %112, align 1
  br label %113

113:                                              ; preds = %110, %107
  br label %114

114:                                              ; preds = %113, %69
  call void @llvm.lifetime.end.p0(i64 8, ptr %7) #8
  br label %115

115:                                              ; preds = %114
  %116 = getelementptr inbounds nuw %struct.ForEachState, ptr %6, i32 0, i32 1
  %117 = load i32, ptr %116, align 8
  %118 = add i32 %117, 1
  store i32 %118, ptr %116, align 8
  br label %29, !llvm.loop !35

119:                                              ; preds = %54
  %120 = load ptr, ptr %4, align 8
  %121 = load ptr, ptr %3, align 8
  %122 = getelementptr inbounds nuw %struct.indexed_tlist, ptr %121, i32 0, i32 4
  %123 = getelementptr inbounds [0 x %struct.tlist_vinfo], ptr %122, i64 0, i64 0
  %124 = ptrtoint ptr %120 to i64
  %125 = ptrtoint ptr %123 to i64
  %126 = sub i64 %124, %125
  %127 = sdiv exact i64 %126, 16
  %128 = trunc i64 %127 to i32
  %129 = load ptr, ptr %3, align 8
  %130 = getelementptr inbounds nuw %struct.indexed_tlist, ptr %129, i32 0, i32 1
  store i32 %128, ptr %130, align 8
  %131 = load ptr, ptr %3, align 8
  call void @llvm.lifetime.end.p0(i64 8, ptr %5) #8
  call void @llvm.lifetime.end.p0(i64 8, ptr %4) #8
  call void @llvm.lifetime.end.p0(i64 8, ptr %3) #8
  ret ptr %131
}

; Function Attrs: nounwind uwtable
define internal ptr @set_windowagg_runcondition_references(ptr noundef %0, ptr noundef %1, ptr noundef %2) #0 {
  %4 = alloca ptr, align 8
  %5 = alloca ptr, align 8
  %6 = alloca ptr, align 8
  %7 = alloca ptr, align 8
  %8 = alloca ptr, align 8
  store ptr %0, ptr %4, align 8
  store ptr %1, ptr %5, align 8
  store ptr %2, ptr %6, align 8
  call void @llvm.lifetime.start.p0(i64 8, ptr %7) #8
  call void @llvm.lifetime.start.p0(i64 8, ptr %8) #8
  %9 = load ptr, ptr %6, align 8
  %10 = getelementptr inbounds nuw %struct.Plan, ptr %9, i32 0, i32 10
  %11 = load ptr, ptr %10, align 8
  %12 = call ptr @build_tlist_index(ptr noundef %11)
  store ptr %12, ptr %8, align 8
  %13 = load ptr, ptr %4, align 8
  %14 = load ptr, ptr %5, align 8
  %15 = load ptr, ptr %8, align 8
  %16 = call ptr @fix_windowagg_condition_expr(ptr noundef %13, ptr noundef %14, ptr noundef %15)
  store ptr %16, ptr %7, align 8
  %17 = load ptr, ptr %8, align 8
  call void @pfree(ptr noundef %17)
  %18 = load ptr, ptr %7, align 8
  call void @llvm.lifetime.end.p0(i64 8, ptr %8) #8
  call void @llvm.lifetime.end.p0(i64 8, ptr %7) #8
  ret ptr %18
}