; Function Attrs: nounwind uwtable
define internal fastcc ptr @set_windowagg_runcondition_references(ptr noundef %0, ptr noundef %1, ptr %.48.val) unnamed_addr #0 {
  %3 = alloca %struct.fix_windowagg_cond_context, align 8
  %.not.i.i = icmp eq ptr %.48.val, null
  br i1 %.not.i.i, label %list_length.exit.i, label %4

4:                                                ; preds = %2
  %5 = getelementptr inbounds nuw i8, ptr %.48.val, i64 4
  %6 = load i32, ptr %5, align 4
  %7 = sext i32 %6 to i64
  %8 = shl nsw i64 %7, 4
  %9 = add nsw i64 %8, 16
  br label %list_length.exit.i

list_length.exit.i:                               ; preds = %4, %2
  %10 = phi i64 [ %9, %4 ], [ 16, %2 ]
  %11 = tail call ptr @palloc(i64 noundef %10) #8
  store ptr %.48.val, ptr %11, align 8
  %12 = getelementptr inbounds nuw i8, ptr %11, i64 12
  store i8 0, ptr %12, align 4
  %13 = getelementptr inbounds nuw i8, ptr %11, i64 13
  store i8 0, ptr %13, align 1
  %14 = getelementptr inbounds nuw i8, ptr %11, i64 16
  %15 = getelementptr inbounds nuw i8, ptr %.48.val, i64 4
  br i1 %.not.i.i, label %build_tlist_index.exit, label %.lr.ph.i

.lr.ph.i:                                         ; preds = %list_length.exit.i
  %16 = getelementptr inbounds nuw i8, ptr %.48.val, i64 16
  %17 = load i32, ptr %15, align 4
  %18 = icmp sgt i32 %17, 0
  br i1 %18, label %.lr.ph49.i, label %build_tlist_index.exit

.lr.ph49.i:                                       ; preds = %.lr.ph.i, %40
  %indvars.iv.i = phi i64 [ %indvars.iv.next.i, %40 ], [ 0, %.lr.ph.i ]
  %.04347.i = phi ptr [ %.1.i, %40 ], [ %14, %.lr.ph.i ]
  %19 = load ptr, ptr %16, align 8
  %20 = getelementptr inbounds nuw %union.ListCell, ptr %19, i64 %indvars.iv.i
  %21 = load ptr, ptr %20, align 8
  %22 = getelementptr inbounds nuw i8, ptr %21, i64 8
  %23 = load ptr, ptr %22, align 8
  %.not37.i = icmp eq ptr %23, null
  br i1 %.not37.i, label %.thread41.i, label %24

24:                                               ; preds = %.lr.ph49.i
  %25 = load i32, ptr %23, align 4
  switch i32 %25, label %.thread41.i [
    i32 6, label %26
    i32 318, label %39
  ]

26:                                               ; preds = %24
  %27 = getelementptr inbounds nuw i8, ptr %23, i64 4
  %28 = load i32, ptr %27, align 4
  store i32 %28, ptr %.04347.i, align 8
  %29 = getelementptr inbounds nuw i8, ptr %23, i64 8
  %30 = load i16, ptr %29, align 8
  %31 = getelementptr inbounds nuw i8, ptr %.04347.i, i64 4
  store i16 %30, ptr %31, align 4
  %32 = getelementptr inbounds nuw i8, ptr %21, i64 16
  %33 = load i16, ptr %32, align 8
  %34 = getelementptr inbounds nuw i8, ptr %.04347.i, i64 6
  store i16 %33, ptr %34, align 2
  %35 = getelementptr inbounds nuw i8, ptr %23, i64 24
  %36 = load ptr, ptr %35, align 8
  %37 = getelementptr inbounds nuw i8, ptr %.04347.i, i64 8
  store ptr %36, ptr %37, align 8
  %38 = getelementptr inbounds nuw i8, ptr %.04347.i, i64 16
  br label %40

39:                                               ; preds = %24
  store i8 1, ptr %12, align 4
  br label %40

.thread41.i:                                      ; preds = %24, %.lr.ph49.i
  store i8 1, ptr %13, align 1
  br label %40

40:                                               ; preds = %.thread41.i, %39, %26
  %.1.i = phi ptr [ %38, %26 ], [ %.04347.i, %39 ], [ %.04347.i, %.thread41.i ]
  %indvars.iv.next.i = add nuw nsw i64 %indvars.iv.i, 1
  %41 = load i32, ptr %15, align 4
  %42 = sext i32 %41 to i64
  %43 = icmp slt i64 %indvars.iv.next.i, %42
  br i1 %43, label %.lr.ph49.i, label %build_tlist_index.exit

build_tlist_index.exit:                           ; preds = %40, %list_length.exit.i, %.lr.ph.i
  %.0.lcssa.i = phi ptr [ %14, %list_length.exit.i ], [ %14, %.lr.ph.i ], [ %.1.i, %40 ]
  %44 = ptrtoint ptr %.0.lcssa.i to i64
  %45 = ptrtoint ptr %14 to i64
  %46 = sub i64 %44, %45
  %47 = lshr exact i64 %46, 4
  %48 = trunc i64 %47 to i32
  %49 = getelementptr inbounds nuw i8, ptr %11, i64 8
  store i32 %48, ptr %49, align 8
  call void @llvm.lifetime.start.p0(i64 24, ptr nonnull %3) #8
  store ptr %0, ptr %3, align 8
  %50 = getelementptr inbounds nuw i8, ptr %3, i64 8
  store ptr %11, ptr %50, align 8
  %51 = getelementptr inbounds nuw i8, ptr %3, i64 16
  store i32 0, ptr %51, align 8
  %52 = call ptr @fix_windowagg_condition_expr_mutator(ptr noundef %1, ptr noundef nonnull %3)
  call void @llvm.lifetime.end.p0(i64 24, ptr nonnull %3) #8
  call void @pfree(ptr noundef nonnull %11) #8
  ret ptr %52
}